; Function Attrs: mustprogress nounwind uwtable
define hidden void @_ZN14GenerateOopMap9do_astoreEi(ptr nocapture noundef nonnull align 8 dereferenceable(176) %0, i32 noundef %1) local_unnamed_addr #0 align 2 {
  %3 = getelementptr inbounds i8, ptr %0, i64 88
  %4 = load i32, ptr %3, align 8
  %5 = icmp slt i32 %4, 1
  br i1 %5, label %6, label %7

6:                                                ; preds = %2
  tail call void (ptr, ptr, ...) @_ZN14GenerateOopMap12report_errorEPKcz(ptr noundef nonnull align 8 dereferenceable(176) %0, ptr noundef nonnull @.str.78)
  br label %_ZN14GenerateOopMap3popEv.exit

7:                                                ; preds = %2
  %8 = getelementptr inbounds i8, ptr %0, i64 72
  %9 = load ptr, ptr %8, align 8
  %10 = getelementptr inbounds i8, ptr %0, i64 32
  %11 = load i32, ptr %10, align 8
  %12 = sext i32 %11 to i64
  %13 = getelementptr inbounds %class.CellTypeState, ptr %9, i64 %12
  %14 = add nsw i32 %4, -1
  store i32 %14, ptr %3, align 8
  %15 = zext nneg i32 %14 to i64
  %16 = getelementptr inbounds %class.CellTypeState, ptr %13, i64 %15
  br label %_ZN14GenerateOopMap3popEv.exit

_ZN14GenerateOopMap3popEv.exit:                   ; preds = %6, %7
  %.sroa.0.0.in.i = phi ptr [ @_ZL6valCTS, %6 ], [ %16, %7 ]
  %.sroa.0.0.i = load i32, ptr %.sroa.0.0.in.i, align 4
  %17 = and i32 %.sroa.0.0.i, -268435456
  switch i32 %17, label %_ZNK13CellTypeState7to_charEv.exit [
    i32 268435456, label %18
    i32 1073741824, label %18
  ]

_ZNK13CellTypeState7to_charEv.exit:               ; preds = %_ZN14GenerateOopMap3popEv.exit
  tail call void (ptr, ptr, ...) @_ZN14GenerateOopMap12report_errorEPKcz(ptr noundef nonnull align 8 dereferenceable(176) %0, ptr noundef nonnull @.str.78)
  br label %_ZN14GenerateOopMap7set_varEi13CellTypeState.exit

18:                                               ; preds = %_ZN14GenerateOopMap3popEv.exit, %_ZN14GenerateOopMap3popEv.exit
  %19 = icmp slt i32 %1, 0
  %20 = getelementptr inbounds i8, ptr %0, i64 32
  %21 = load i32, ptr %20, align 8
  %22 = icmp slt i32 %21, %1
  %or.cond.i = select i1 %19, i1 true, i1 %22
  br i1 %or.cond.i, label %23, label %24

23:                                               ; preds = %18
  tail call void (ptr, ptr, ...) @_ZN14GenerateOopMap12report_errorEPKcz(ptr noundef nonnull align 8 dereferenceable(176) %0, ptr noundef nonnull @.str.78)
  br label %_ZN14GenerateOopMap7set_varEi13CellTypeState.exit

24:                                               ; preds = %18
  %25 = getelementptr inbounds i8, ptr %0, i64 72
  %26 = load ptr, ptr %25, align 8
  %27 = zext nneg i32 %1 to i64
  %28 = getelementptr inbounds %class.CellTypeState, ptr %26, i64 %27
  store i32 %.sroa.0.0.i, ptr %28, align 4
  br label %_ZN14GenerateOopMap7set_varEi13CellTypeState.exit

_ZN14GenerateOopMap7set_varEi13CellTypeState.exit: ; preds = %24, %23, %_ZNK13CellTypeState7to_charEv.exit
  ret void
}